; Function Attrs: mustprogress uwtable
define hidden void @_ZN3mbp12solve_pluginclEP4expr(ptr noalias sret(%class.obj_ref) align 8 %agg.result, ptr noundef nonnull align 8 dereferenceable(32) %this, ptr noundef %lit) local_unnamed_addr #3 align 2 {
entry:
  %m_kind.i.i.i.i = getelementptr inbounds i8, ptr %lit, i64 4
  %bf.load.i.i.i.i = load i32, ptr %m_kind.i.i.i.i, align 4
  %bf.clear.i.i.i.i = and i32 %bf.load.i.i.i.i, 65535
  %cmp.i.i.i = icmp eq i32 %bf.clear.i.i.i.i, 0
  br i1 %cmp.i.i.i, label %land.rhs.i.i.i, label %if.else

land.rhs.i.i.i:                                   ; preds = %entry
  %m_decl.i.i.i.i = getelementptr inbounds i8, ptr %lit, i64 16
  %0 = load ptr, ptr %m_decl.i.i.i.i, align 8
  %m_info.i.i.i.i.i = getelementptr inbounds i8, ptr %0, i64 24
  %1 = load ptr, ptr %m_info.i.i.i.i.i, align 8
  %tobool.not.i.i.i.i.i = icmp eq ptr %1, null
  br i1 %tobool.not.i.i.i.i.i, label %if.else, label %_ZNK11ast_manager6is_notEPK4expr.exit.i

_ZNK11ast_manager6is_notEPK4expr.exit.i:          ; preds = %land.rhs.i.i.i
  %2 = load i32, ptr %1, align 8
  %cmp.i.i.i.i.i.i = icmp eq i32 %2, 0
  %m_kind.i.i.i.i.i.i = getelementptr inbounds i8, ptr %1, i64 4
  %3 = load i32, ptr %m_kind.i.i.i.i.i.i, align 4
  %cmp2.i.i.i.i.i.i = icmp eq i32 %3, 8
  %4 = select i1 %cmp.i.i.i.i.i.i, i1 %cmp2.i.i.i.i.i.i, i1 false
  br i1 %4, label %land.lhs.true.i, label %if.else

land.lhs.true.i:                                  ; preds = %_ZNK11ast_manager6is_notEPK4expr.exit.i
  %m_num_args.i.i = getelementptr inbounds i8, ptr %lit, i64 24
  %5 = load i32, ptr %m_num_args.i.i, align 8
  %cmp.i = icmp eq i32 %5, 1
  br i1 %cmp.i, label %if.then, label %if.else

if.then:                                          ; preds = %land.lhs.true.i
  %m_args.i.i = getelementptr inbounds i8, ptr %lit, i64 32
  %6 = load ptr, ptr %m_args.i.i, align 8
  %vtable = load ptr, ptr %this, align 8
  %7 = load ptr, ptr %vtable, align 8
  tail call void %7(ptr sret(%class.obj_ref) align 8 %agg.result, ptr noundef nonnull align 8 dereferenceable(32) %this, ptr noundef %6, i1 noundef zeroext false)
  br label %return

if.else:                                          ; preds = %land.lhs.true.i, %_ZNK11ast_manager6is_notEPK4expr.exit.i, %entry, %land.rhs.i.i.i
  %vtable2 = load ptr, ptr %this, align 8
  %8 = load ptr, ptr %vtable2, align 8
  tail call void %8(ptr sret(%class.obj_ref) align 8 %agg.result, ptr noundef nonnull align 8 dereferenceable(32) %this, ptr noundef nonnull %lit, i1 noundef zeroext true)
  br label %return

return:                                           ; preds = %if.else, %if.then
  ret void
}